target datalayout = "e-m:e-p270:32:32-p271:32:32-p272:64:64-i64:64-i128:128-f80:128-n8:16:32:64-S128"
target triple = "x86_64-pc-linux-gnu"

%struct._zend_executor_globals = type { %struct._zval_struct, %struct._zval_struct, [32 x ptr], ptr, ptr, %struct._zend_array, %struct._zend_array, ptr, i32, i8, %struct._zval_struct, i32, ptr, ptr, ptr, ptr, ptr, ptr, i64, ptr, ptr, i32, ptr, i32, i64, i32, i32, i32, i8, i8, %struct.zend_atomic_bool_s, %struct.zend_atomic_bool_s, ptr, i64, ptr, ptr, %struct._zend_array, %struct._zend_array, i32, i8, %struct._zval_struct, %struct._zval_struct, %struct._zend_stack, %struct._zend_stack, %struct._zend_stack, ptr, i32, i32, i64, ptr, ptr, ptr, %struct._zend_objects_store, %struct._zend_lazy_objects_store, ptr, ptr, ptr, [3 x %struct._zend_op], ptr, i8, i8, i64, i32, i32, ptr, [16 x %struct._HashTableIterator], ptr, %union._zend_function, %struct._zend_op, %struct._zend_array, i64, %struct.zend_get_gc_buffer, ptr, ptr, ptr, i64, i8, i32, ptr, ptr, i64, %struct._zend_call_stack, i64, i64, %struct._zend_strtod_state, [6 x ptr] }
%struct.zend_atomic_bool_s = type { i8 }
%struct._zval_struct = type { %union._zend_value, %union.anon, %union.anon.2 }
%union._zend_value = type { i64 }
%union.anon = type { i32 }
%union.anon.2 = type { i32 }
%struct._zend_stack = type { i32, i32, i32, ptr }
%struct._zend_objects_store = type { ptr, i32, i32, i32 }
%struct._zend_lazy_objects_store = type { %struct._zend_array }
%struct._HashTableIterator = type { ptr, i32, i32 }
%union._zend_function = type { %struct._zend_op_array }
%struct._zend_op_array = type { i8, [3 x i8], i32, ptr, ptr, ptr, i32, i32, ptr, ptr, ptr, ptr, i32, ptr, i32, i32, i32, ptr, ptr, ptr, ptr, ptr, i32, i32, ptr, ptr, ptr, i32, i32, i32, i32, ptr, ptr, [6 x ptr] }
%struct._zend_op = type { ptr, %union._znode_op, %union._znode_op, %union._znode_op, i32, i32, i8, i8, i8, i8 }
%union._znode_op = type { i32 }
%struct._zend_array = type { %struct._zend_refcounted_h, %union.anon.4, i32, %union.anon.6, i32, i32, i32, i32, i64, ptr }
%struct._zend_refcounted_h = type { i32, %union.anon.3 }
%union.anon.3 = type { i32 }
%union.anon.4 = type { i32 }
%union.anon.6 = type { ptr }
%struct.zend_get_gc_buffer = type { ptr, ptr, ptr }
%struct._zend_call_stack = type { ptr, i64 }
%struct._zend_strtod_state = type { [8 x ptr], ptr, ptr }
%struct._zend_string = type { %struct._zend_refcounted_h, i64, i64, [1 x i8] }

@executor_globals = external global %struct._zend_executor_globals, align 8
@.str.13 = private unnamed_addr constant [1 x i8] zeroinitializer, align 1
@.str.19 = private unnamed_addr constant [26 x i8] c"Class %s does not exist%s\00", align 1
@.str.20 = private unnamed_addr constant [25 x i8] c" and could not be loaded\00", align 1

; Function Attrs: alwaysinline nounwind uwtable
define internal i32 @zend_gc_delref(ptr noundef %0) #4 {
  %2 = alloca ptr, align 8
  store ptr %0, ptr %2, align 8, !tbaa !117
  %3 = load ptr, ptr %2, align 8, !tbaa !117
  %4 = getelementptr inbounds nuw %struct._zend_refcounted_h, ptr %3, i32 0, i32 0
  %5 = load i32, ptr %4, align 4, !tbaa !119
  %6 = icmp ugt i32 %5, 0
  call void @llvm.assume(i1 %6)
  br label %7

7:                                                ; preds = %1
  br label %8

8:                                                ; preds = %7
  %9 = load ptr, ptr %2, align 8, !tbaa !117
  %10 = getelementptr inbounds nuw %struct._zend_refcounted_h, ptr %9, i32 0, i32 0
  %11 = load i32, ptr %10, align 4, !tbaa !119
  %12 = add i32 %11, -1
  store i32 %12, ptr %10, align 4, !tbaa !119
  ret i32 %12
}

; Function Attrs: alwaysinline nounwind uwtable
define internal i32 @zval_gc_flags(i32 noundef %0) #4 {
  %2 = alloca i32, align 4
  store i32 %0, ptr %2, align 4, !tbaa !56
  %3 = load i32, ptr %2, align 4, !tbaa !56
  %4 = lshr i32 %3, 0
  %5 = and i32 %4, 1008
  ret i32 %5
}

; Function Attrs: alwaysinline nounwind uwtable
define internal void @zend_string_release(ptr noundef %0) #4 {
  %2 = alloca ptr, align 8
  store ptr %0, ptr %2, align 8, !tbaa !53
  %3 = load ptr, ptr %2, align 8, !tbaa !53
  %4 = getelementptr inbounds nuw %struct._zend_string, ptr %3, i32 0, i32 0
  %5 = getelementptr inbounds nuw %struct._zend_refcounted_h, ptr %4, i32 0, i32 1
  %6 = load i32, ptr %5, align 4, !tbaa !13
  %7 = call i32 @zval_gc_flags(i32 noundef %6)
  %8 = and i32 %7, 64
  %9 = icmp ne i32 %8, 0
  br i1 %9, label %29, label %10

10:                                               ; preds = %1
  %11 = load ptr, ptr %2, align 8, !tbaa !53
  %12 = getelementptr inbounds nuw %struct._zend_string, ptr %11, i32 0, i32 0
  %13 = call i32 @zend_gc_delref(ptr noundef %12)
  %14 = icmp eq i32 %13, 0
  br i1 %14, label %15, label %28

15:                                               ; preds = %10
  %16 = load ptr, ptr %2, align 8, !tbaa !53
  %17 = getelementptr inbounds nuw %struct._zend_string, ptr %16, i32 0, i32 0
  %18 = getelementptr inbounds nuw %struct._zend_refcounted_h, ptr %17, i32 0, i32 1
  %19 = load i32, ptr %18, align 4, !tbaa !13
  %20 = call i32 @zval_gc_flags(i32 noundef %19)
  %21 = and i32 %20, 128
  %22 = icmp ne i32 %21, 0
  br i1 %22, label %23, label %25

23:                                               ; preds = %15
  %24 = load ptr, ptr %2, align 8, !tbaa !53
  call void @free(ptr noundef %24) #12
  br label %27

25:                                               ; preds = %15
  %26 = load ptr, ptr %2, align 8, !tbaa !53
  call void @_efree(ptr noundef %26)
  br label %27

27:                                               ; preds = %25, %23
  br label %28

28:                                               ; preds = %27, %10
  br label %29

29:                                               ; preds = %28, %1
  ret void
}

; Function Attrs: alwaysinline nounwind uwtable
define internal ptr @zend_hash_find_ptr(ptr noundef %0, ptr noundef %1) #4 {
  %3 = alloca ptr, align 8
  %4 = alloca ptr, align 8
  %5 = alloca ptr, align 8
  %6 = alloca ptr, align 8
  %7 = alloca i32, align 4
  store ptr %0, ptr %4, align 8, !tbaa !52
  store ptr %1, ptr %5, align 8, !tbaa !53
  call void @llvm.lifetime.start.p0(i64 8, ptr %6) #12
  %8 = load ptr, ptr %4, align 8, !tbaa !52
  %9 = load ptr, ptr %5, align 8, !tbaa !53
  %10 = call ptr @zend_hash_find(ptr noundef %8, ptr noundef %9)
  store ptr %10, ptr %6, align 8, !tbaa !9
  %11 = load ptr, ptr %6, align 8, !tbaa !9
  %12 = icmp ne ptr %11, null
  br i1 %12, label %13, label %21

13:                                               ; preds = %2
  %14 = load ptr, ptr %6, align 8, !tbaa !9
  %15 = getelementptr inbounds nuw %struct._zval_struct, ptr %14, i32 0, i32 0
  %16 = load ptr, ptr %15, align 8, !tbaa !13
  %17 = icmp ne ptr %16, null
  call void @llvm.assume(i1 %17)
  %18 = load ptr, ptr %6, align 8, !tbaa !9
  %19 = getelementptr inbounds nuw %struct._zval_struct, ptr %18, i32 0, i32 0
  %20 = load ptr, ptr %19, align 8, !tbaa !13
  store ptr %20, ptr %3, align 8
  store i32 1, ptr %7, align 4
  br label %22

21:                                               ; preds = %2
  store ptr null, ptr %3, align 8
  store i32 1, ptr %7, align 4
  br label %22

22:                                               ; preds = %21, %13
  call void @llvm.lifetime.end.p0(i64 8, ptr %6) #12
  %23 = load ptr, ptr %3, align 8
  ret ptr %23
}

; Function Attrs: alwaysinline nounwind uwtable
define internal ptr @zend_string_tolower(ptr noundef %0) #4 {
  %2 = alloca ptr, align 8
  store ptr %0, ptr %2, align 8, !tbaa !53
  %3 = load ptr, ptr %2, align 8, !tbaa !53
  %4 = call ptr @zend_string_tolower_ex(ptr noundef %3, i1 noundef zeroext false)
  ret ptr %4
}

; Function Attrs: nounwind uwtable
define internal ptr @spl_find_ce_by_name(ptr noundef %0, i1 noundef zeroext %1) #0 {
  %3 = alloca ptr, align 8
  %4 = alloca ptr, align 8
  %5 = alloca i8, align 1
  %6 = alloca ptr, align 8
  %7 = alloca ptr, align 8
  %8 = alloca i32, align 4
  store ptr %0, ptr %4, align 8, !tbaa !53
  %9 = zext i1 %1 to i8
  store i8 %9, ptr %5, align 1, !tbaa !11
  call void @llvm.lifetime.start.p0(i64 8, ptr %6) #12
  %10 = load i8, ptr %5, align 1, !tbaa !11, !range !46, !noundef !47
  %11 = trunc i8 %10 to i1
  br i1 %11, label %19, label %12

12:                                               ; preds = %2
  call void @llvm.lifetime.start.p0(i64 8, ptr %7) #12
  %13 = load ptr, ptr %4, align 8, !tbaa !53
  %14 = call ptr @zend_string_tolower(ptr noundef %13)
  store ptr %14, ptr %7, align 8, !tbaa !53
  %15 = load ptr, ptr getelementptr inbounds nuw (%struct._zend_executor_globals, ptr @executor_globals, i32 0, i32 13), align 8, !tbaa !54
  %16 = load ptr, ptr %7, align 8, !tbaa !53
  %17 = call ptr @zend_hash_find_ptr(ptr noundef %15, ptr noundef %16)
  store ptr %17, ptr %6, align 8, !tbaa !48
  %18 = load ptr, ptr %7, align 8, !tbaa !53
  call void @zend_string_release(ptr noundef %18)
  call void @llvm.lifetime.end.p0(i64 8, ptr %7) #12
  br label %22

19:                                               ; preds = %2
  %20 = load ptr, ptr %4, align 8, !tbaa !53
  %21 = call ptr @zend_lookup_class(ptr noundef %20)
  store ptr %21, ptr %6, align 8, !tbaa !48
  br label %22

22:                                               ; preds = %19, %12
  %23 = load ptr, ptr %6, align 8, !tbaa !48
  %24 = icmp eq ptr %23, null
  br i1 %24, label %25, label %32

25:                                               ; preds = %22
  %26 = load ptr, ptr %4, align 8, !tbaa !53
  %27 = getelementptr inbounds nuw %struct._zend_string, ptr %26, i32 0, i32 3
  %28 = getelementptr inbounds [1 x i8], ptr %27, i64 0, i64 0
  %29 = load i8, ptr %5, align 1, !tbaa !11, !range !46, !noundef !47
  %30 = trunc i8 %29 to i1
  %31 = select i1 %30, ptr @.str.20, ptr @.str.13
  call void (ptr, i32, ptr, ...) @php_error_docref(ptr noundef null, i32 noundef 2, ptr noundef @.str.19, ptr noundef %28, ptr noundef %31)
  store ptr null, ptr %3, align 8
  store i32 1, ptr %8, align 4
  br label %34

32:                                               ; preds = %22
  %33 = load ptr, ptr %6, align 8, !tbaa !48
  store ptr %33, ptr %3, align 8
  store i32 1, ptr %8, align 4
  br label %34

34:                                               ; preds = %32, %25
  call void @llvm.lifetime.end.p0(i64 8, ptr %6) #12
  %35 = load ptr, ptr %3, align 8
  ret ptr %35
}