; Function Attrs: nounwind uwtable
define internal fastcc ptr @spl_find_ce_by_name(ptr noundef %0, i1 noundef zeroext %1) unnamed_addr #0 {
  br i1 %1, label %21, label %3

3:                                                ; preds = %2
  %4 = tail call ptr @zend_string_tolower_ex(ptr noundef %0, i1 noundef zeroext false) #10
  %5 = load ptr, ptr getelementptr inbounds nuw (i8, ptr @executor_globals, i64 464), align 8, !tbaa !50
  %6 = tail call ptr @zend_hash_find(ptr noundef %5, ptr noundef %4) #10
  %.not.i10 = icmp eq ptr %6, null
  br i1 %.not.i10, label %zend_hash_find_ptr.exit, label %7

7:                                                ; preds = %3
  %8 = load ptr, ptr %6, align 8, !tbaa !8, !nonnull !46, !noundef !46
  br label %zend_hash_find_ptr.exit

zend_hash_find_ptr.exit:                          ; preds = %3, %7
  %.0.i = phi ptr [ %8, %7 ], [ null, %3 ]
  %9 = getelementptr inbounds nuw i8, ptr %4, i64 4
  %10 = load i32, ptr %9, align 4, !tbaa !8
  %11 = and i32 %10, 64
  %.not.i = icmp eq i32 %11, 0
  br i1 %.not.i, label %12, label %zend_string_release.exit

12:                                               ; preds = %zend_hash_find_ptr.exit
  %13 = load i32, ptr %4, align 4, !tbaa !51
  %14 = icmp ne i32 %13, 0
  tail call void @llvm.assume(i1 %14)
  %15 = add i32 %13, -1
  store i32 %15, ptr %4, align 4, !tbaa !51
  %16 = icmp eq i32 %15, 0
  br i1 %16, label %17, label %zend_string_release.exit

17:                                               ; preds = %12
  %18 = and i32 %10, 128
  %.not5.i = icmp eq i32 %18, 0
  br i1 %.not5.i, label %20, label %19

19:                                               ; preds = %17
  tail call void @free(ptr noundef nonnull %4) #10
  br label %zend_string_release.exit

20:                                               ; preds = %17
  tail call void @_efree(ptr noundef nonnull %4) #10
  br label %zend_string_release.exit

21:                                               ; preds = %2
  %22 = tail call ptr @zend_lookup_class(ptr noundef %0) #10
  br label %zend_string_release.exit

zend_string_release.exit:                         ; preds = %20, %19, %12, %zend_hash_find_ptr.exit, %21
  %.09 = phi ptr [ %22, %21 ], [ %.0.i, %zend_hash_find_ptr.exit ], [ %.0.i, %12 ], [ %.0.i, %19 ], [ %.0.i, %20 ]
  %23 = icmp eq ptr %.09, null
  br i1 %23, label %24, label %27

24:                                               ; preds = %zend_string_release.exit
  %25 = getelementptr inbounds nuw i8, ptr %0, i64 24
  %26 = select i1 %1, ptr @.str.20, ptr @.str.13
  tail call void (ptr, i32, ptr, ...) @php_error_docref(ptr noundef null, i32 noundef 2, ptr noundef nonnull @.str.19, ptr noundef nonnull %25, ptr noundef nonnull %26) #10
  br label %27

27:                                               ; preds = %zend_string_release.exit, %24
  ret ptr %.09
}